target datalayout = "e-m:e-p270:32:32-p271:32:32-p272:64:64-i64:64-i128:128-f80:128-n8:16:32:64-S128"
target triple = "x86_64-pc-linux-gnu"

%struct.Vec_Int_t_ = type { i32, i32, ptr }
%struct.Abc_Ntk_t_ = type { i32, i32, ptr, ptr, ptr, ptr, ptr, ptr, ptr, ptr, ptr, ptr, ptr, [11 x i32], i32, i32, i32, i32, ptr, i32, ptr, ptr, i32, i32, i32, double, i32, %struct.Vec_Int_t_, ptr, ptr, ptr, ptr, ptr, float, i32, ptr, ptr, ptr, ptr, ptr, ptr, ptr, ptr, ptr, ptr, ptr, ptr, ptr, ptr, ptr, ptr, ptr, ptr, ptr, ptr, ptr, ptr }

@.str.2 = private unnamed_addr constant [72 x i8] c"Warning: The choice nodes in the initial AIG are removed by strashing.\0A\00", align 1
@.str.3 = private unnamed_addr constant [23 x i8] c"AIG check has failed.\0A\00", align 1
@.str.9 = private unnamed_addr constant [46 x i8] c"Abc_NtkIvy(): Converting to SOPs has failed.\0A\00", align 1
@.str.10 = private unnamed_addr constant [61 x i8] c"Warning: The network has %d self-feeding latches. Quitting.\0A\00", align 1

; Function Attrs: inlinehint nounwind uwtable
define internal void @Vec_IntFree(ptr noundef %0) #2 {
  %2 = alloca ptr, align 8
  store ptr %0, ptr %2, align 8, !tbaa !12
  %3 = load ptr, ptr %2, align 8, !tbaa !12
  %4 = getelementptr inbounds nuw %struct.Vec_Int_t_, ptr %3, i32 0, i32 2
  %5 = load ptr, ptr %4, align 8, !tbaa !14
  %6 = icmp ne ptr %5, null
  br i1 %6, label %7, label %13

7:                                                ; preds = %1
  %8 = load ptr, ptr %2, align 8, !tbaa !12
  %9 = getelementptr inbounds nuw %struct.Vec_Int_t_, ptr %8, i32 0, i32 2
  %10 = load ptr, ptr %9, align 8, !tbaa !14
  call void @free(ptr noundef %10) #11
  %11 = load ptr, ptr %2, align 8, !tbaa !12
  %12 = getelementptr inbounds nuw %struct.Vec_Int_t_, ptr %11, i32 0, i32 2
  store ptr null, ptr %12, align 8, !tbaa !14
  br label %14

13:                                               ; preds = %1
  br label %14

14:                                               ; preds = %13, %7
  %15 = load ptr, ptr %2, align 8, !tbaa !12
  %16 = icmp ne ptr %15, null
  br i1 %16, label %17, label %19

17:                                               ; preds = %14
  %18 = load ptr, ptr %2, align 8, !tbaa !12
  call void @free(ptr noundef %18) #11
  store ptr null, ptr %2, align 8, !tbaa !12
  br label %20

19:                                               ; preds = %14
  br label %20

20:                                               ; preds = %19, %17
  ret void
}

; Function Attrs: inlinehint nounwind uwtable
define internal i32 @Abc_NtkIsBddLogic(ptr noundef %0) #2 {
  %2 = alloca ptr, align 8
  store ptr %0, ptr %2, align 8, !tbaa !3
  %3 = load ptr, ptr %2, align 8, !tbaa !3
  %4 = getelementptr inbounds nuw %struct.Abc_Ntk_t_, ptr %3, i32 0, i32 1
  %5 = load i32, ptr %4, align 4, !tbaa !17
  %6 = icmp eq i32 %5, 2
  br i1 %6, label %7, label %12

7:                                                ; preds = %1
  %8 = load ptr, ptr %2, align 8, !tbaa !3
  %9 = getelementptr inbounds nuw %struct.Abc_Ntk_t_, ptr %8, i32 0, i32 0
  %10 = load i32, ptr %9, align 8, !tbaa !30
  %11 = icmp eq i32 %10, 2
  br label %12

12:                                               ; preds = %7, %1
  %13 = phi i1 [ false, %1 ], [ %11, %7 ]
  %14 = zext i1 %13 to i32
  ret i32 %14
}

; Function Attrs: nounwind uwtable
define ptr @Abc_NtkIvy(ptr noundef %0) #0 {
  %2 = alloca ptr, align 8
  %3 = alloca ptr, align 8
  %4 = alloca ptr, align 8
  %5 = alloca ptr, align 8
  %6 = alloca i32, align 4
  store ptr %0, ptr %3, align 8, !tbaa !3
  call void @llvm.lifetime.start.p0(i64 8, ptr %4) #11
  call void @llvm.lifetime.start.p0(i64 8, ptr %5) #11
  %7 = load ptr, ptr %3, align 8, !tbaa !3
  %8 = call ptr @Abc_NtkCollectLatchValuesIvy(ptr noundef %7, i32 noundef 0)
  store ptr %8, ptr %5, align 8, !tbaa !12
  %9 = load ptr, ptr %3, align 8, !tbaa !3
  %10 = call i32 @Abc_NtkIsBddLogic(ptr noundef %9)
  %11 = icmp ne i32 %10, 0
  br i1 %11, label %12, label %20

12:                                               ; preds = %1
  %13 = load ptr, ptr %3, align 8, !tbaa !3
  %14 = call i32 @Abc_NtkBddToSop(ptr noundef %13, i32 noundef -1, i32 noundef 1000000000, i32 noundef 1)
  %15 = icmp ne i32 %14, 0
  br i1 %15, label %19, label %16

16:                                               ; preds = %12
  %17 = load ptr, ptr %5, align 8, !tbaa !12
  call void @Vec_IntFree(ptr noundef %17)
  %18 = call i32 (ptr, ...) @printf(ptr noundef @.str.9)
  store ptr null, ptr %2, align 8
  store i32 1, ptr %6, align 4
  br label %46

19:                                               ; preds = %12
  br label %20

20:                                               ; preds = %19, %1
  %21 = load ptr, ptr %3, align 8, !tbaa !3
  %22 = call i32 @Abc_NtkCountSelfFeedLatches(ptr noundef %21)
  %23 = icmp ne i32 %22, 0
  br i1 %23, label %24, label %28

24:                                               ; preds = %20
  %25 = load ptr, ptr %3, align 8, !tbaa !3
  %26 = call i32 @Abc_NtkCountSelfFeedLatches(ptr noundef %25)
  %27 = call i32 (ptr, ...) @printf(ptr noundef @.str.10, i32 noundef %26)
  store ptr null, ptr %2, align 8
  store i32 1, ptr %6, align 4
  br label %46

28:                                               ; preds = %20
  %29 = load ptr, ptr %3, align 8, !tbaa !3
  %30 = call i32 @Abc_NtkGetChoiceNum(ptr noundef %29)
  %31 = icmp ne i32 %30, 0
  br i1 %31, label %32, label %34

32:                                               ; preds = %28
  %33 = call i32 (ptr, ...) @printf(ptr noundef @.str.2)
  br label %34

34:                                               ; preds = %32, %28
  %35 = load ptr, ptr %3, align 8, !tbaa !3
  %36 = call ptr @Abc_NtkToIvy(ptr noundef %35)
  store ptr %36, ptr %4, align 8, !tbaa !10
  %37 = load ptr, ptr %4, align 8, !tbaa !10
  %38 = call i32 @Ivy_ManCheck(ptr noundef %37)
  %39 = icmp ne i32 %38, 0
  br i1 %39, label %44, label %40

40:                                               ; preds = %34
  %41 = load ptr, ptr %5, align 8, !tbaa !12
  call void @Vec_IntFree(ptr noundef %41)
  %42 = call i32 (ptr, ...) @printf(ptr noundef @.str.3)
  %43 = load ptr, ptr %4, align 8, !tbaa !10
  call void @Ivy_ManStop(ptr noundef %43)
  store ptr null, ptr %2, align 8
  store i32 1, ptr %6, align 4
  br label %46

44:                                               ; preds = %34
  %45 = load ptr, ptr %4, align 8, !tbaa !10
  call void @Ivy_ManStop(ptr noundef %45)
  store ptr null, ptr %2, align 8
  store i32 1, ptr %6, align 4
  br label %46

46:                                               ; preds = %44, %40, %24, %16
  call void @llvm.lifetime.end.p0(i64 8, ptr %5) #11
  call void @llvm.lifetime.end.p0(i64 8, ptr %4) #11
  %47 = load ptr, ptr %2, align 8
  ret ptr %47
}