; Function Attrs: nounwind uwtable
define noalias noundef ptr @Abc_NtkIvy(ptr noundef %0) local_unnamed_addr #0 {
  %2 = tail call fastcc ptr @Abc_NtkCollectLatchValuesIvy(ptr noundef %0, i32 noundef 0)
  %3 = getelementptr inbounds nuw i8, ptr %0, i64 4
  %4 = load i32, ptr %3, align 4, !tbaa !3
  %5 = icmp eq i32 %4, 2
  br i1 %5, label %Abc_NtkIsBddLogic.exit, label %Abc_NtkIsBddLogic.exit.thread

Abc_NtkIsBddLogic.exit:                           ; preds = %1
  %6 = load i32, ptr %0, align 8, !tbaa !24
  %.not = icmp eq i32 %6, 2
  br i1 %.not, label %7, label %Abc_NtkIsBddLogic.exit.thread

7:                                                ; preds = %Abc_NtkIsBddLogic.exit
  %8 = tail call i32 @Abc_NtkBddToSop(ptr noundef nonnull %0, i32 noundef -1, i32 noundef 1000000000, i32 noundef 1) #15
  %.not13 = icmp eq i32 %8, 0
  br i1 %.not13, label %9, label %Abc_NtkIsBddLogic.exit.thread

9:                                                ; preds = %7
  %10 = getelementptr inbounds nuw i8, ptr %2, i64 8
  %11 = load ptr, ptr %10, align 8, !tbaa !26
  %.not.i = icmp eq ptr %11, null
  br i1 %.not.i, label %Vec_IntFree.exit, label %12

12:                                               ; preds = %9
  tail call void @free(ptr noundef nonnull %11) #15
  br label %Vec_IntFree.exit

Vec_IntFree.exit:                                 ; preds = %9, %12
  tail call void @free(ptr noundef nonnull %2) #15
  %puts = tail call i32 @puts(ptr nonnull dereferenceable(1) @str.4)
  br label %28

Abc_NtkIsBddLogic.exit.thread:                    ; preds = %1, %7, %Abc_NtkIsBddLogic.exit
  %13 = tail call i32 @Abc_NtkCountSelfFeedLatches(ptr noundef nonnull %0) #15
  %.not14 = icmp eq i32 %13, 0
  br i1 %.not14, label %17, label %14

14:                                               ; preds = %Abc_NtkIsBddLogic.exit.thread
  %15 = tail call i32 @Abc_NtkCountSelfFeedLatches(ptr noundef nonnull %0) #15
  %16 = tail call i32 (ptr, ...) @printf(ptr noundef nonnull dereferenceable(1) @.str.10, i32 noundef %15)
  br label %28

17:                                               ; preds = %Abc_NtkIsBddLogic.exit.thread
  %18 = tail call i32 @Abc_NtkGetChoiceNum(ptr noundef nonnull %0) #15
  %.not15 = icmp eq i32 %18, 0
  br i1 %.not15, label %20, label %19

19:                                               ; preds = %17
  %puts16 = tail call i32 @puts(ptr nonnull dereferenceable(1) @str.5)
  br label %20

20:                                               ; preds = %19, %17
  %21 = tail call fastcc ptr @Abc_NtkToIvy(ptr noundef nonnull %0)
  %22 = tail call i32 @Ivy_ManCheck(ptr noundef %21) #15
  %.not17 = icmp eq i32 %22, 0
  br i1 %.not17, label %23, label %27

23:                                               ; preds = %20
  %24 = getelementptr inbounds nuw i8, ptr %2, i64 8
  %25 = load ptr, ptr %24, align 8, !tbaa !26
  %.not.i19 = icmp eq ptr %25, null
  br i1 %.not.i19, label %Vec_IntFree.exit20, label %26

26:                                               ; preds = %23
  tail call void @free(ptr noundef nonnull %25) #15
  br label %Vec_IntFree.exit20

Vec_IntFree.exit20:                               ; preds = %23, %26
  tail call void @free(ptr noundef nonnull %2) #15
  %puts18 = tail call i32 @puts(ptr nonnull dereferenceable(1) @str.6)
  tail call void @Ivy_ManStop(ptr noundef %21) #15
  br label %28

27:                                               ; preds = %20
  tail call void @Ivy_ManStop(ptr noundef %21) #15
  br label %28

28:                                               ; preds = %27, %Vec_IntFree.exit20, %14, %Vec_IntFree.exit
  ret ptr null
}